target datalayout = "e-m:e-p270:32:32-p271:32:32-p272:64:64-i64:64-i128:128-f80:128-n8:16:32:64-S128"
target triple = "x86_64-unknown-linux-gnu"

%class.ast_translation = type <{ ptr, ptr, %class.svector, %class.ptr_vector, %class.ptr_vector, %class.obj_map, i32, i32, i32, i32, i32, [4 x i8] }>
%class.svector = type { %class.vector }
%class.vector = type { ptr }
%class.ptr_vector = type { %class.vector.0 }
%class.vector.0 = type { ptr }
%class.obj_map = type { %class.core_hashtable }
%class.core_hashtable = type <{ ptr, i32, i32, i32, [4 x i8] }>
%class.expr_dependency_translation = type { ptr, %class.ptr_vector.49 }
%class.ptr_vector.49 = type { %class.vector.50 }
%class.vector.50 = type { ptr }

; Function Attrs: mustprogress uwtable
define linkonce_odr hidden noundef ptr @_ZN15ast_translation9translateI4exprEEPT_PKS2_(ptr noundef nonnull align 8 dereferenceable(84) %this, ptr noundef %n) #5 comdat align 2 {
entry:
  %retval = alloca ptr, align 8
  %this.addr = alloca ptr, align 8
  %n.addr = alloca ptr, align 8
  %r = alloca ptr, align 8
  store ptr %this, ptr %this.addr, align 8
  store ptr %n, ptr %n.addr, align 8
  %this1 = load ptr, ptr %this.addr, align 8
  %call = call noundef nonnull align 8 dereferenceable(976) ptr @_ZNK15ast_translation4fromEv(ptr noundef nonnull align 8 dereferenceable(84) %this1)
  %call2 = call noundef nonnull align 8 dereferenceable(976) ptr @_ZNK15ast_translation2toEv(ptr noundef nonnull align 8 dereferenceable(84) %this1)
  %cmp = icmp eq ptr %call, %call2
  br i1 %cmp, label %if.then, label %if.end

if.then:                                          ; preds = %entry
  %0 = load ptr, ptr %n.addr, align 8
  store ptr %0, ptr %retval, align 8
  br label %return

if.end:                                           ; preds = %entry
  %1 = load ptr, ptr %n.addr, align 8
  %call3 = call noundef ptr @_ZN15ast_translation7processEPK3ast(ptr noundef nonnull align 8 dereferenceable(84) %this1, ptr noundef %1)
  store ptr %call3, ptr %r, align 8
  %2 = load ptr, ptr %r, align 8
  store ptr %2, ptr %retval, align 8
  br label %return

return:                                           ; preds = %if.end, %if.then
  %3 = load ptr, ptr %retval, align 8
  ret ptr %3
}

; Function Attrs: mustprogress nounwind uwtable
define linkonce_odr hidden noundef ptr @_ZNK6vectorIP4exprLb0EjE4dataEv(ptr noundef nonnull align 8 dereferenceable(8) %this) #4 comdat align 2 {
entry:
  %this.addr = alloca ptr, align 8
  store ptr %this, ptr %this.addr, align 8
  %this1 = load ptr, ptr %this.addr, align 8
  %m_data = getelementptr inbounds %class.vector.50, ptr %this1, i32 0, i32 0
  %0 = load ptr, ptr %m_data, align 8
  ret ptr %0
}

; Function Attrs: mustprogress nounwind uwtable
define linkonce_odr hidden noundef nonnull align 8 dereferenceable(976) ptr @_ZNK15ast_translation2toEv(ptr noundef nonnull align 8 dereferenceable(84) %this) #4 comdat align 2 {
entry:
  %this.addr = alloca ptr, align 8
  store ptr %this, ptr %this.addr, align 8
  %this1 = load ptr, ptr %this.addr, align 8
  %m_to_manager = getelementptr inbounds %class.ast_translation, ptr %this1, i32 0, i32 1
  %0 = load ptr, ptr %m_to_manager, align 8
  ret ptr %0
}

; Function Attrs: mustprogress uwtable
define linkonce_odr hidden noundef ptr @_ZN15ast_translationclI4exprEEPT_PKS2_(ptr noundef nonnull align 8 dereferenceable(84) %this, ptr noundef %n) #5 comdat align 2 {
entry:
  %this.addr = alloca ptr, align 8
  %n.addr = alloca ptr, align 8
  store ptr %this, ptr %this.addr, align 8
  store ptr %n, ptr %n.addr, align 8
  %this1 = load ptr, ptr %this.addr, align 8
  %0 = load ptr, ptr %n.addr, align 8
  %call = call noundef ptr @_ZN15ast_translation9translateI4exprEEPT_PKS2_(ptr noundef nonnull align 8 dereferenceable(84) %this1, ptr noundef %0)
  ret ptr %call
}

; Function Attrs: mustprogress nounwind uwtable
define linkonce_odr hidden noundef nonnull align 8 dereferenceable(8) ptr @_ZN6vectorIP4exprLb0EjEixEj(ptr noundef nonnull align 8 dereferenceable(8) %this, i32 noundef %idx) #4 comdat align 2 {
entry:
  %this.addr = alloca ptr, align 8
  %idx.addr = alloca i32, align 4
  store ptr %this, ptr %this.addr, align 8
  store i32 %idx, ptr %idx.addr, align 4
  %this1 = load ptr, ptr %this.addr, align 8
  %m_data = getelementptr inbounds %class.vector.50, ptr %this1, i32 0, i32 0
  %0 = load ptr, ptr %m_data, align 8
  %1 = load i32, ptr %idx.addr, align 4
  %idxprom = zext i32 %1 to i64
  %arrayidx = getelementptr inbounds ptr, ptr %0, i64 %idxprom
  ret ptr %arrayidx
}

; Function Attrs: mustprogress nounwind uwtable
define linkonce_odr hidden noundef i32 @_ZNK6vectorIP4exprLb0EjE4sizeEv(ptr noundef nonnull align 8 dereferenceable(8) %this) #4 comdat align 2 {
entry:
  %retval = alloca i32, align 4
  %this.addr = alloca ptr, align 8
  store ptr %this, ptr %this.addr, align 8
  %this1 = load ptr, ptr %this.addr, align 8
  %m_data = getelementptr inbounds %class.vector.50, ptr %this1, i32 0, i32 0
  %0 = load ptr, ptr %m_data, align 8
  %cmp = icmp eq ptr %0, null
  br i1 %cmp, label %if.then, label %if.end

if.then:                                          ; preds = %entry
  store i32 0, ptr %retval, align 4
  br label %return

if.end:                                           ; preds = %entry
  %m_data2 = getelementptr inbounds %class.vector.50, ptr %this1, i32 0, i32 0
  %1 = load ptr, ptr %m_data2, align 8
  %arrayidx = getelementptr inbounds i32, ptr %1, i64 -1
  %2 = load i32, ptr %arrayidx, align 4
  store i32 %2, ptr %retval, align 4
  br label %return

return:                                           ; preds = %if.end, %if.then
  %3 = load i32, ptr %retval, align 4
  ret i32 %3
}

; Function Attrs: mustprogress nounwind uwtable
define linkonce_odr hidden noundef nonnull align 8 dereferenceable(976) ptr @_ZNK15ast_translation4fromEv(ptr noundef nonnull align 8 dereferenceable(84) %this) #4 comdat align 2 {
entry:
  %this.addr = alloca ptr, align 8
  store ptr %this, ptr %this.addr, align 8
  %this1 = load ptr, ptr %this.addr, align 8
  %m_from_manager = getelementptr inbounds %class.ast_translation, ptr %this1, i32 0, i32 0
  %0 = load ptr, ptr %m_from_manager, align 8
  ret ptr %0
}

; Function Attrs: mustprogress nounwind uwtable
define linkonce_odr hidden void @_ZN6vectorIP4exprLb0EjE5resetEv(ptr noundef nonnull align 8 dereferenceable(8) %this) #4 comdat align 2 {
entry:
  %this.addr = alloca ptr, align 8
  store ptr %this, ptr %this.addr, align 8
  %this1 = load ptr, ptr %this.addr, align 8
  %m_data = getelementptr inbounds %class.vector.50, ptr %this1, i32 0, i32 0
  %0 = load ptr, ptr %m_data, align 8
  %tobool = icmp ne ptr %0, null
  br i1 %tobool, label %if.then, label %if.end

if.then:                                          ; preds = %entry
  %m_data2 = getelementptr inbounds %class.vector.50, ptr %this1, i32 0, i32 0
  %1 = load ptr, ptr %m_data2, align 8
  %arrayidx = getelementptr inbounds i32, ptr %1, i64 -1
  store i32 0, ptr %arrayidx, align 4
  br label %if.end

if.end:                                           ; preds = %if.then, %entry
  ret void
}

; Function Attrs: mustprogress uwtable
define hidden noundef ptr @_ZN27expr_dependency_translationclEPN18dependency_managerIN11ast_manager22expr_dependency_configEE10dependencyE(ptr noundef nonnull align 8 dereferenceable(16) %this, ptr noundef %d) #5 align 2 {
entry:
  %retval = alloca ptr, align 8
  %this.addr = alloca ptr, align 8
  %d.addr = alloca ptr, align 8
  %sz = alloca i32, align 4
  %i = alloca i32, align 4
  store ptr %this, ptr %this.addr, align 8
  store ptr %d, ptr %d.addr, align 8
  %this1 = load ptr, ptr %this.addr, align 8
  %0 = load ptr, ptr %d.addr, align 8
  %cmp = icmp eq ptr %0, null
  br i1 %cmp, label %if.then, label %if.end

if.then:                                          ; preds = %entry
  %1 = load ptr, ptr %d.addr, align 8
  store ptr %1, ptr %retval, align 8
  br label %return

if.end:                                           ; preds = %entry
  %m_buffer = getelementptr inbounds %class.expr_dependency_translation, ptr %this1, i32 0, i32 1
  call void @_ZN6vectorIP4exprLb0EjE5resetEv(ptr noundef nonnull align 8 dereferenceable(8) %m_buffer)
  %m_translation = getelementptr inbounds %class.expr_dependency_translation, ptr %this1, i32 0, i32 0
  %2 = load ptr, ptr %m_translation, align 8
  %call = call noundef nonnull align 8 dereferenceable(976) ptr @_ZNK15ast_translation4fromEv(ptr noundef nonnull align 8 dereferenceable(84) %2)
  %3 = load ptr, ptr %d.addr, align 8
  %m_buffer2 = getelementptr inbounds %class.expr_dependency_translation, ptr %this1, i32 0, i32 1
  call void @_ZN11ast_manager9linearizeEPN18dependency_managerINS_22expr_dependency_configEE10dependencyER10ptr_vectorI4exprE(ptr noundef nonnull align 8 dereferenceable(976) %call, ptr noundef %3, ptr noundef nonnull align 8 dereferenceable(8) %m_buffer2)
  %m_buffer3 = getelementptr inbounds %class.expr_dependency_translation, ptr %this1, i32 0, i32 1
  %call4 = call noundef i32 @_ZNK6vectorIP4exprLb0EjE4sizeEv(ptr noundef nonnull align 8 dereferenceable(8) %m_buffer3)
  store i32 %call4, ptr %sz, align 4
  store i32 0, ptr %i, align 4
  br label %for.cond

for.cond:                                         ; preds = %for.inc, %if.end
  %4 = load i32, ptr %i, align 4
  %5 = load i32, ptr %sz, align 4
  %cmp5 = icmp ult i32 %4, %5
  br i1 %cmp5, label %for.body, label %for.end

for.body:                                         ; preds = %for.cond
  %m_translation6 = getelementptr inbounds %class.expr_dependency_translation, ptr %this1, i32 0, i32 0
  %6 = load ptr, ptr %m_translation6, align 8
  %m_buffer7 = getelementptr inbounds %class.expr_dependency_translation, ptr %this1, i32 0, i32 1
  %7 = load i32, ptr %i, align 4
  %call8 = call noundef nonnull align 8 dereferenceable(8) ptr @_ZN6vectorIP4exprLb0EjEixEj(ptr noundef nonnull align 8 dereferenceable(8) %m_buffer7, i32 noundef %7)
  %8 = load ptr, ptr %call8, align 8
  %call9 = call noundef ptr @_ZN15ast_translationclI4exprEEPT_PKS2_(ptr noundef nonnull align 8 dereferenceable(84) %6, ptr noundef %8)
  %m_buffer10 = getelementptr inbounds %class.expr_dependency_translation, ptr %this1, i32 0, i32 1
  %9 = load i32, ptr %i, align 4
  %call11 = call noundef nonnull align 8 dereferenceable(8) ptr @_ZN6vectorIP4exprLb0EjEixEj(ptr noundef nonnull align 8 dereferenceable(8) %m_buffer10, i32 noundef %9)
  store ptr %call9, ptr %call11, align 8
  br label %for.inc

for.inc:                                          ; preds = %for.body
  %10 = load i32, ptr %i, align 4
  %inc = add i32 %10, 1
  store i32 %inc, ptr %i, align 4
  br label %for.cond, !llvm.loop !12

for.end:                                          ; preds = %for.cond
  %m_translation12 = getelementptr inbounds %class.expr_dependency_translation, ptr %this1, i32 0, i32 0
  %11 = load ptr, ptr %m_translation12, align 8
  %call13 = call noundef nonnull align 8 dereferenceable(976) ptr @_ZNK15ast_translation2toEv(ptr noundef nonnull align 8 dereferenceable(84) %11)
  %12 = load i32, ptr %sz, align 4
  %m_buffer14 = getelementptr inbounds %class.expr_dependency_translation, ptr %this1, i32 0, i32 1
  %call15 = call noundef ptr @_ZNK6vectorIP4exprLb0EjE4dataEv(ptr noundef nonnull align 8 dereferenceable(8) %m_buffer14)
  %call16 = call noundef ptr @_ZN11ast_manager7mk_joinEjPKP4expr(ptr noundef nonnull align 8 dereferenceable(976) %call13, i32 noundef %12, ptr noundef %call15)
  store ptr %call16, ptr %retval, align 8
  br label %return

return:                                           ; preds = %for.end, %if.then
  %13 = load ptr, ptr %retval, align 8
  ret ptr %13
}