; Function Attrs: mustprogress uwtable
define hidden noundef ptr @_ZN27expr_dependency_translationclEPN18dependency_managerIN11ast_manager22expr_dependency_configEE10dependencyE(ptr noundef nonnull align 8 dereferenceable(16) %this, ptr noundef %d) local_unnamed_addr #4 align 2 {
entry:
  %cmp = icmp eq ptr %d, null
  br i1 %cmp, label %return, label %if.end

if.end:                                           ; preds = %entry
  %m_buffer = getelementptr inbounds i8, ptr %this, i64 8
  %0 = load ptr, ptr %m_buffer, align 8
  %tobool.not.i = icmp eq ptr %0, null
  br i1 %tobool.not.i, label %_ZN6vectorIP4exprLb0EjE5resetEv.exit, label %if.then.i

if.then.i:                                        ; preds = %if.end
  %arrayidx.i = getelementptr inbounds i8, ptr %0, i64 -4
  store i32 0, ptr %arrayidx.i, align 4
  br label %_ZN6vectorIP4exprLb0EjE5resetEv.exit

_ZN6vectorIP4exprLb0EjE5resetEv.exit:             ; preds = %if.end, %if.then.i
  %1 = load ptr, ptr %this, align 8
  %2 = load ptr, ptr %1, align 8
  tail call void @_ZN11ast_manager9linearizeEPN18dependency_managerINS_22expr_dependency_configEE10dependencyER10ptr_vectorI4exprE(ptr noundef nonnull align 8 dereferenceable(976) %2, ptr noundef nonnull %d, ptr noundef nonnull align 8 dereferenceable(8) %m_buffer)
  %3 = load ptr, ptr %m_buffer, align 8
  %cmp.i = icmp eq ptr %3, null
  br i1 %cmp.i, label %for.end, label %_ZNK6vectorIP4exprLb0EjE4sizeEv.exit

_ZNK6vectorIP4exprLb0EjE4sizeEv.exit:             ; preds = %_ZN6vectorIP4exprLb0EjE5resetEv.exit
  %arrayidx.i7 = getelementptr inbounds i8, ptr %3, i64 -4
  %4 = load i32, ptr %arrayidx.i7, align 4
  %cmp511.not = icmp eq i32 %4, 0
  br i1 %cmp511.not, label %for.end, label %for.body.preheader

for.body.preheader:                               ; preds = %_ZNK6vectorIP4exprLb0EjE4sizeEv.exit
  %wide.trip.count = zext i32 %4 to i64
  br label %for.body

for.body:                                         ; preds = %for.body.preheader, %_ZN15ast_translationclI4exprEEPT_PKS2_.exit
  %indvars.iv = phi i64 [ 0, %for.body.preheader ], [ %indvars.iv.next, %_ZN15ast_translationclI4exprEEPT_PKS2_.exit ]
  %5 = load ptr, ptr %this, align 8
  %6 = load ptr, ptr %m_buffer, align 8
  %arrayidx.i8 = getelementptr inbounds ptr, ptr %6, i64 %indvars.iv
  %7 = load ptr, ptr %arrayidx.i8, align 8
  %8 = load ptr, ptr %5, align 8
  %m_to_manager.i.i.i = getelementptr inbounds i8, ptr %5, i64 8
  %9 = load ptr, ptr %m_to_manager.i.i.i, align 8
  %cmp.i.i = icmp eq ptr %8, %9
  br i1 %cmp.i.i, label %_ZN15ast_translationclI4exprEEPT_PKS2_.exit, label %if.end.i.i

if.end.i.i:                                       ; preds = %for.body
  %call3.i.i = tail call noundef ptr @_ZN15ast_translation7processEPK3ast(ptr noundef nonnull align 8 dereferenceable(84) %5, ptr noundef %7)
  %.pre = load ptr, ptr %m_buffer, align 8
  br label %_ZN15ast_translationclI4exprEEPT_PKS2_.exit

_ZN15ast_translationclI4exprEEPT_PKS2_.exit:      ; preds = %for.body, %if.end.i.i
  %10 = phi ptr [ %.pre, %if.end.i.i ], [ %6, %for.body ]
  %retval.0.i.i = phi ptr [ %call3.i.i, %if.end.i.i ], [ %7, %for.body ]
  %arrayidx.i10 = getelementptr inbounds ptr, ptr %10, i64 %indvars.iv
  store ptr %retval.0.i.i, ptr %arrayidx.i10, align 8
  %indvars.iv.next = add nuw nsw i64 %indvars.iv, 1
  %exitcond.not = icmp eq i64 %indvars.iv.next, %wide.trip.count
  br i1 %exitcond.not, label %for.end.loopexit, label %for.body, !llvm.loop !20

for.end.loopexit:                                 ; preds = %_ZN15ast_translationclI4exprEEPT_PKS2_.exit
  %.pre14 = load ptr, ptr %m_buffer, align 8
  br label %for.end

for.end:                                          ; preds = %_ZN6vectorIP4exprLb0EjE5resetEv.exit, %for.end.loopexit, %_ZNK6vectorIP4exprLb0EjE4sizeEv.exit
  %retval.0.i17 = phi i32 [ %4, %for.end.loopexit ], [ 0, %_ZNK6vectorIP4exprLb0EjE4sizeEv.exit ], [ 0, %_ZN6vectorIP4exprLb0EjE5resetEv.exit ]
  %11 = phi ptr [ %.pre14, %for.end.loopexit ], [ %3, %_ZNK6vectorIP4exprLb0EjE4sizeEv.exit ], [ null, %_ZN6vectorIP4exprLb0EjE5resetEv.exit ]
  %12 = load ptr, ptr %this, align 8
  %m_to_manager.i = getelementptr inbounds i8, ptr %12, i64 8
  %13 = load ptr, ptr %m_to_manager.i, align 8
  %call16 = tail call noundef ptr @_ZN11ast_manager7mk_joinEjPKP4expr(ptr noundef nonnull align 8 dereferenceable(976) %13, i32 noundef %retval.0.i17, ptr noundef %11)
  br label %return

return:                                           ; preds = %entry, %for.end
  %retval.0 = phi ptr [ %call16, %for.end ], [ null, %entry ]
  ret ptr %retval.0
}